Certificate:
    Data:
        Version: 3 (0x2)
        Serial Number: 13 (0xd)
    Signature Algorithm: sha256WithRSAEncryption
        Issuer: C=FR, ST=IDF, L=Ivry sur Seine, O=CantBreakIt, OU=CBI, CN=CantBreakIt CA/name=EasyRSA/emailAddress=cangelosi@cantbreakit.fr
        Validity
            Not Before: Jul 11 10:05:33 2016 GMT
            Not After : Jul  9 10:05:33 2026 GMT
        Subject: C=FR, ST=IDF, L=Ivry sur Seine, O=CantBreakIt, OU=CBI, CN=Client1/name=EasyRSA/emailAddress=cangelosi@cantbreakit.fr
        Subject Public Key Info:
            Public Key Algorithm: rsaEncryption
                Public-Key: (2048 bit)
                Modulus:
                    00:af:e2:fd:ee:ce:c6:87:b0:d8:14:94:66:4c:b9:
                    b0:50:99:d3:06:67:4b:36:b6:f5:39:13:7c:0a:61:
                    8d:2e:59:1d:d2:4d:3a:87:44:f3:24:65:6f:d2:75:
                    44:72:22:99:24:83:15:24:d9:6b:4b:38:ea:42:a9:
                    a7:84:8e:8c:fc:a5:b5:53:aa:1d:fa:45:e3:56:fe:
                    5c:dd:ab:ff:72:2e:07:89:dd:ab:4d:55:6a:45:30:
                    7a:67:a9:97:8f:da:4d:f5:9b:17:f3:78:ce:d8:0a:
                    77:07:d5:97:42:d1:09:2b:f9:06:47:ae:8b:99:bf:
                    1d:c8:e8:45:b5:15:b1:d9:be:b6:36:c4:0b:c8:ab:
                    d2:65:2a:e0:c9:41:15:8b:05:c6:3e:13:a9:78:54:
                    12:c6:8c:8c:fa:45:53:2a:77:53:65:9d:7b:42:fd:
                    1d:56:10:fe:ce:ba:56:49:05:af:de:3c:85:e5:0b:
                    66:a2:3d:6a:07:7f:f3:67:a4:f1:04:1a:50:f1:71:
                    07:a1:c0:59:6a:14:17:05:b9:6f:dc:73:45:ff:60:
                    fd:52:86:53:21:76:55:22:be:f4:1a:b2:08:cf:b6:
                    81:4b:88:be:8e:0c:c9:c4:4c:5f:6d:61:f2:00:b1:
                    8c:7b:98:14:92:d3:67:9b:c9:b4:28:9b:62:83:33:
                    f7:ff
                Exponent: 65537 (0x10001)
        X509v3 extensions:
            X509v3 Basic Constraints: 
                CA:FALSE
            Netscape Comment: 
                Easy-RSA Generated Certificate
            X509v3 Subject Key Identifier: 
                08:96:FB:83:81:6B:14:01:EF:3E:F1:72:C8:43:26:2A:3E:AB:3D:58
            X509v3 Authority Key Identifier: 
                keyid:6F:C5:51:22:E5:D2:66:9F:C2:B1:58:F0:FD:C6:4A:67:09:76:E9:AD
                DirName:/C=FR/ST=IDF/L=Ivry sur Seine/O=CantBreakIt/OU=CBI/CN=CantBreakIt CA/name=EasyRSA/emailAddress=cangelosi@cantbreakit.fr
                serial:87:B8:9A:BC:58:FC:1F:E0

            X509v3 Extended Key Usage: 
                TLS Web Client Authentication
            X509v3 Key Usage: 
                Digital Signature
            X509v3 Subject Alternative Name: 
                DNS:Client1
    Signature Algorithm: sha256WithRSAEncryption
         2e:f8:b7:a8:df:d0:50:c6:5f:20:32:c8:df:0e:d3:4d:21:50:
         cd:2c:b4:df:61:18:f0:2b:66:09:9f:39:95:17:69:94:27:68:
         3e:cf:3f:5e:f6:cf:9d:23:72:08:f3:34:6b:d6:02:76:e6:af:
         0a:61:55:a2:41:f8:10:cb:63:18:39:56:eb:cf:9c:f9:5d:60:
         e9:86:1e:26:0c:44:e3:5b:30:f9:8b:a0:44:ef:0c:0e:38:62:
         ee:8f:ef:6d:5c:29:65:13:b5:7f:bd:55:dd:ef:ca:aa:ed:f1:
         3a:05:e4:0c:eb:a5:87:d2:6f:d0:e0:c3:5e:4f:cc:ad:b5:87:
         67:cc:ce:94:64:65:9f:7d:bf:71:52:81:52:7b:1d:65:b1:dc:
         07:c2:6c:70:3b:d4:a0:73:62:58:9e:b1:49:9b:4b:21:1b:91:
         fc:78:6f:50:2f:20:b3:97:8e:d2:f7:d1:61:36:14:39:29:ea:
         ef:b2:fe:89:74:18:6e:2d:56:d1:93:5d:11:1b:36:71:4f:4a:
         ea:82:ee:8e:c1:44:80:a6:02:be:f1:82:df:6e:76:1d:6b:47:
         bc:55:a7:74:ad:66:0e:57:73:1d:46:12:eb:08:83:ce:07:07:
         fe:9d:6b:86:1c:99:35:15:f4:cc:37:48:02:e4:7e:be:46:79:
         25:36:05:fc
-----BEGIN CERTIFICATE-----
MIIFRzCCBC+gAwIBAgIBDTANBgkqhkiG9w0BAQsFADCBrDELMAkGA1UEBhMCRlIx
DDAKBgNVBAgTA0lERjEXMBUGA1UEBxMOSXZyeSBzdXIgU2VpbmUxFDASBgNVBAoT
C0NhbnRCcmVha0l0MQwwCgYDVQQLEwNDQkkxFzAVBgNVBAMTDkNhbnRCcmVha0l0
IENBMRAwDgYDVQQpEwdFYXN5UlNBMScwJQYJKoZIhvcNAQkBFhhjYW5nZWxvc2lA
Y2FudGJyZWFraXQuZnIwHhcNMTYwNzExMTAwNTMzWhcNMjYwNzA5MTAwNTMzWjCB
pTELMAkGA1UEBhMCRlIxDDAKBgNVBAgTA0lERjEXMBUGA1UEBxMOSXZyeSBzdXIg
U2VpbmUxFDASBgNVBAoTC0NhbnRCcmVha0l0MQwwCgYDVQQLEwNDQkkxEDAOBgNV
BAMTB0NsaWVudDExEDAOBgNVBCkTB0Vhc3lSU0ExJzAlBgkqhkiG9w0BCQEWGGNh
bmdlbG9zaUBjYW50YnJlYWtpdC5mcjCCASIwDQYJKoZIhvcNAQEBBQADggEPADCC
AQoCggEBAK/i/e7Oxoew2BSUZky5sFCZ0wZnSza29TkTfAphjS5ZHdJNOodE8yRl
b9J1RHIimSSDFSTZa0s46kKpp4SOjPyltVOqHfpF41b+XN2r/3IuB4ndq01VakUw
emepl4/aTfWbF/N4ztgKdwfVl0LRCSv5Bkeui5m/HcjoRbUVsdm+tjbEC8ir0mUq
4MlBFYsFxj4TqXhUEsaMjPpFUyp3U2Wde0L9HVYQ/s66VkkFr948heULZqI9agd/
82ek8QQaUPFxB6HAWWoUFwW5b9xzRf9g/VKGUyF2VSK+9BqyCM+2gUuIvo4MycRM
X21h8gCxjHuYFJLTZ5vJtCibYoMz9/8CAwEAAaOCAXcwggFzMAkGA1UdEwQCMAAw
LQYJYIZIAYb4QgENBCAWHkVhc3ktUlNBIEdlbmVyYXRlZCBDZXJ0aWZpY2F0ZTAd
BgNVHQ4EFgQUCJb7g4FrFAHvPvFyyEMmKj6rPVgwgeEGA1UdIwSB2TCB1oAUb8VR
IuXSZp/CsVjw/cZKZwl26a2hgbKkga8wgawxCzAJBgNVBAYTAkZSMQwwCgYDVQQI
EwNJREYxFzAVBgNVBAcTDkl2cnkgc3VyIFNlaW5lMRQwEgYDVQQKEwtDYW50QnJl
YWtJdDEMMAoGA1UECxMDQ0JJMRcwFQYDVQQDEw5DYW50QnJlYWtJdCBDQTEQMA4G
A1UEKRMHRWFzeVJTQTEnMCUGCSqGSIb3DQEJARYYY2FuZ2Vsb3NpQGNhbnRicmVh
a2l0LmZyggkAh7iavFj8H+AwEwYDVR0lBAwwCgYIKwYBBQUHAwIwCwYDVR0PBAQD
AgeAMBIGA1UdEQQLMAmCB0NsaWVudDEwDQYJKoZIhvcNAQELBQADggEBAC74t6jf
0FDGXyAyyN8O000hUM0stN9hGPArZgmfOZUXaZQnaD7PP172z50jcgjzNGvWAnbm
rwphVaJB+BDLYxg5VuvPnPldYOmGHiYMRONbMPmLoETvDA44Yu6P721cKWUTtX+9
Vd3vyqrt8ToF5AzrpYfSb9Dgw15PzK21h2fMzpRkZZ99v3FSgVJ7HWWx3AfCbHA7
1KBzYliesUmbSyEbkfx4b1AvILOXjtL30WE2FDkp6u+y/ol0GG4tVtGTXREbNnFP
SuqC7o7BRICmAr7xgt9udh1rR7xVp3StZg5Xcx1GEusIg84HB/6da4YcmTUV9Mw3
SALkfr5GeSU2Bfw=
-----END CERTIFICATE-----
