Certificate:
    Data:
        Version: 3 (0x2)
        Serial Number: 12 (0xc)
    Signature Algorithm: sha256WithRSAEncryption
        Issuer: C=FR, ST=IDF, L=Ivry sur Seine, O=CantBreakIt, OU=CBI, CN=CantBreakIt CA/name=EasyRSA/emailAddress=cangelosi@cantbreakit.fr
        Validity
            Not Before: Jul 11 10:02:09 2016 GMT
            Not After : Jul  9 10:02:09 2026 GMT
        Subject: C=FR, ST=IDF, L=Ivry sur Seine, O=CantBreakIt, OU=CBI, CN=Alessio/name=EasyRSA/emailAddress=cangelosi@cantbreakit.fr
        Subject Public Key Info:
            Public Key Algorithm: rsaEncryption
                Public-Key: (2048 bit)
                Modulus:
                    00:93:09:de:bf:0d:bd:b7:8b:07:0e:bd:be:0b:18:
                    68:bc:05:43:ca:bd:26:da:70:25:06:a5:cd:f6:92:
                    86:ba:68:c4:6e:05:4d:f2:eb:d0:c2:53:04:94:d9:
                    ce:bc:4a:1f:dd:ed:74:63:ff:13:36:3b:52:ec:f9:
                    f0:bd:7c:71:76:00:1c:11:89:aa:9b:0f:36:dc:75:
                    7c:95:64:a2:d8:95:96:fa:55:fc:55:eb:fc:1c:db:
                    fe:7f:d5:16:ea:f6:79:b4:53:bb:b8:90:7e:89:0a:
                    b5:2c:b7:d7:33:1c:9c:95:15:b9:ff:aa:98:62:c4:
                    18:97:36:71:9a:07:00:37:17:f5:b8:0a:b7:c4:07:
                    c7:d6:ef:9a:d6:64:aa:ec:37:91:62:17:70:28:1b:
                    cc:60:0a:fc:5f:34:b8:0d:51:ca:ec:b7:bb:34:a9:
                    98:85:9d:0a:01:f5:6b:b5:0e:7d:f1:55:1f:fa:78:
                    98:5b:59:bd:26:99:d3:d1:62:0c:3d:60:c8:4f:5e:
                    d8:7b:c0:37:f6:ff:50:9e:ff:a9:2d:e7:db:6b:18:
                    1b:02:ce:3d:92:e3:88:30:87:a0:37:35:1b:24:68:
                    b3:95:47:91:f1:4d:bd:ef:50:7f:e7:27:86:6d:ac:
                    d7:20:f0:e0:ea:4d:b0:fc:e5:2b:af:94:19:26:21:
                    3a:e1
                Exponent: 65537 (0x10001)
        X509v3 extensions:
            X509v3 Basic Constraints: 
                CA:FALSE
            Netscape Comment: 
                Easy-RSA Generated Certificate
            X509v3 Subject Key Identifier: 
                4F:E1:FC:D4:33:76:CE:8E:3A:3A:2E:51:21:46:BD:ED:38:0E:B1:9E
            X509v3 Authority Key Identifier: 
                keyid:6F:C5:51:22:E5:D2:66:9F:C2:B1:58:F0:FD:C6:4A:67:09:76:E9:AD
                DirName:/C=FR/ST=IDF/L=Ivry sur Seine/O=CantBreakIt/OU=CBI/CN=CantBreakIt CA/name=EasyRSA/emailAddress=cangelosi@cantbreakit.fr
                serial:87:B8:9A:BC:58:FC:1F:E0

            X509v3 Extended Key Usage: 
                TLS Web Client Authentication
            X509v3 Key Usage: 
                Digital Signature
            X509v3 Subject Alternative Name: 
                DNS:Alessio
    Signature Algorithm: sha256WithRSAEncryption
         8b:22:67:54:0e:02:83:b5:25:89:31:1d:3f:89:a7:c6:85:9f:
         e0:f1:23:bf:de:cf:51:25:37:50:92:21:25:19:b7:ca:46:16:
         25:23:a6:df:e4:8f:29:f0:17:8a:89:60:65:fe:32:88:b1:45:
         36:6a:c5:cb:1a:c9:96:29:37:d2:5e:2d:e7:e2:cb:30:8a:92:
         74:c7:9e:6b:83:85:fa:2e:b0:b9:bd:a5:ff:7d:f5:e1:c6:82:
         be:d6:43:27:0d:a2:c3:db:7f:bb:b5:4a:34:f0:3a:f9:7e:4a:
         f3:58:82:4e:74:e1:e9:cc:a7:50:05:a3:6f:9d:a1:a4:62:3d:
         c0:f8:e1:b5:08:7b:b5:d5:88:a0:86:89:4b:20:0b:cd:78:1e:
         de:8f:67:1d:97:4f:48:91:3e:91:65:2a:5b:61:97:f3:01:61:
         da:36:81:f3:a0:e9:fc:6d:26:d9:14:e9:58:29:45:be:af:05:
         d9:3e:d2:33:ff:be:90:7f:dc:7e:ee:7e:70:4c:f2:03:90:cd:
         f2:62:8f:47:43:20:91:41:7a:5f:8a:bf:38:08:82:24:08:35:
         16:95:c0:12:48:e9:5c:49:dd:2e:8c:11:cf:e6:fb:2e:12:e4:
         6a:38:51:3b:bc:0a:3f:60:44:02:dc:3f:a7:f1:9b:43:d4:1a:
         5b:cb:a3:fe
-----BEGIN CERTIFICATE-----
MIIFRzCCBC+gAwIBAgIBDDANBgkqhkiG9w0BAQsFADCBrDELMAkGA1UEBhMCRlIx
DDAKBgNVBAgTA0lERjEXMBUGA1UEBxMOSXZyeSBzdXIgU2VpbmUxFDASBgNVBAoT
C0NhbnRCcmVha0l0MQwwCgYDVQQLEwNDQkkxFzAVBgNVBAMTDkNhbnRCcmVha0l0
IENBMRAwDgYDVQQpEwdFYXN5UlNBMScwJQYJKoZIhvcNAQkBFhhjYW5nZWxvc2lA
Y2FudGJyZWFraXQuZnIwHhcNMTYwNzExMTAwMjA5WhcNMjYwNzA5MTAwMjA5WjCB
pTELMAkGA1UEBhMCRlIxDDAKBgNVBAgTA0lERjEXMBUGA1UEBxMOSXZyeSBzdXIg
U2VpbmUxFDASBgNVBAoTC0NhbnRCcmVha0l0MQwwCgYDVQQLEwNDQkkxEDAOBgNV
BAMTB0FsZXNzaW8xEDAOBgNVBCkTB0Vhc3lSU0ExJzAlBgkqhkiG9w0BCQEWGGNh
bmdlbG9zaUBjYW50YnJlYWtpdC5mcjCCASIwDQYJKoZIhvcNAQEBBQADggEPADCC
AQoCggEBAJMJ3r8NvbeLBw69vgsYaLwFQ8q9JtpwJQalzfaShrpoxG4FTfLr0MJT
BJTZzrxKH93tdGP/EzY7Uuz58L18cXYAHBGJqpsPNtx1fJVkotiVlvpV/FXr/Bzb
/n/VFur2ebRTu7iQfokKtSy31zMcnJUVuf+qmGLEGJc2cZoHADcX9bgKt8QHx9bv
mtZkquw3kWIXcCgbzGAK/F80uA1Ryuy3uzSpmIWdCgH1a7UOffFVH/p4mFtZvSaZ
09FiDD1gyE9e2HvAN/b/UJ7/qS3n22sYGwLOPZLjiDCHoDc1GyRos5VHkfFNve9Q
f+cnhm2s1yDw4OpNsPzlK6+UGSYhOuECAwEAAaOCAXcwggFzMAkGA1UdEwQCMAAw
LQYJYIZIAYb4QgENBCAWHkVhc3ktUlNBIEdlbmVyYXRlZCBDZXJ0aWZpY2F0ZTAd
BgNVHQ4EFgQUT+H81DN2zo46Oi5RIUa97TgOsZ4wgeEGA1UdIwSB2TCB1oAUb8VR
IuXSZp/CsVjw/cZKZwl26a2hgbKkga8wgawxCzAJBgNVBAYTAkZSMQwwCgYDVQQI
EwNJREYxFzAVBgNVBAcTDkl2cnkgc3VyIFNlaW5lMRQwEgYDVQQKEwtDYW50QnJl
YWtJdDEMMAoGA1UECxMDQ0JJMRcwFQYDVQQDEw5DYW50QnJlYWtJdCBDQTEQMA4G
A1UEKRMHRWFzeVJTQTEnMCUGCSqGSIb3DQEJARYYY2FuZ2Vsb3NpQGNhbnRicmVh
a2l0LmZyggkAh7iavFj8H+AwEwYDVR0lBAwwCgYIKwYBBQUHAwIwCwYDVR0PBAQD
AgeAMBIGA1UdEQQLMAmCB0FsZXNzaW8wDQYJKoZIhvcNAQELBQADggEBAIsiZ1QO
AoO1JYkxHT+Jp8aFn+DxI7/ez1ElN1CSISUZt8pGFiUjpt/kjynwF4qJYGX+Moix
RTZqxcsayZYpN9JeLefiyzCKknTHnmuDhfousLm9pf999eHGgr7WQycNosPbf7u1
SjTwOvl+SvNYgk504enMp1AFo2+doaRiPcD44bUIe7XViKCGiUsgC814Ht6PZx2X
T0iRPpFlKlthl/MBYdo2gfOg6fxtJtkU6VgpRb6vBdk+0jP/vpB/3H7ufnBM8gOQ
zfJij0dDIJFBel+KvzgIgiQINRaVwBJI6VxJ3S6MEc/m+y4S5Go4UTu8Cj9gRALc
P6fxm0PUGlvLo/4=
-----END CERTIFICATE-----
