Certificate:
    Data:
        Version: 3 (0x2)
        Serial Number: 15 (0xf)
    Signature Algorithm: sha256WithRSAEncryption
        Issuer: C=FR, ST=IDF, L=Ivry sur Seine, O=CantBreakIt, OU=CBI, CN=CantBreakIt CA/name=EasyRSA/emailAddress=cangelosi@cantbreakit.fr
        Validity
            Not Before: Jul 11 13:10:26 2016 GMT
            Not After : Jul  9 13:10:26 2026 GMT
        Subject: C=FR, ST=IDF, L=Ivry sur Seine, O=CantBreakIt, OU=CBI, CN=Adjevi/name=EasyRSA/emailAddress=cangelosi@cantbreakit.fr
        Subject Public Key Info:
            Public Key Algorithm: rsaEncryption
                Public-Key: (2048 bit)
                Modulus:
                    00:d1:10:79:17:24:31:25:ca:a2:51:04:44:6b:12:
                    f2:d7:cb:d8:ad:1c:6e:29:d1:11:fa:64:1a:c7:b7:
                    b8:ff:c0:db:24:a9:19:96:82:53:c1:58:6f:ec:ba:
                    d6:d0:a1:e9:51:ac:cc:87:7f:bf:d8:0c:13:ad:bd:
                    bf:cd:7e:4f:c6:d5:6a:d8:9b:27:06:83:6b:36:34:
                    d7:81:00:d6:47:3f:cc:99:2f:8e:ac:0a:a0:a5:1a:
                    08:32:d8:ff:04:52:be:ff:e4:56:13:95:a9:a3:01:
                    52:90:d9:a5:d4:cc:96:69:e1:6d:ee:fa:6f:f6:08:
                    de:38:13:5e:17:e4:ed:44:e3:52:05:0a:b2:57:1c:
                    64:26:d9:16:0d:4d:1a:19:0c:7e:b0:26:a6:36:00:
                    44:87:e7:eb:06:32:0f:a6:9f:c1:ca:ef:74:2b:39:
                    a2:ac:a6:a5:8f:1d:bd:af:45:e5:2f:ab:90:d3:bb:
                    14:24:e3:0b:53:bb:d0:82:02:27:34:c9:dd:3e:49:
                    51:84:c7:72:0f:d4:61:ec:87:b4:63:2a:1f:27:b0:
                    55:cb:9d:fc:f8:d6:e2:44:e8:41:5d:2b:44:ff:1d:
                    00:9b:8d:90:d8:31:98:06:a2:47:dc:d9:d3:03:36:
                    71:2c:0f:b2:fe:4f:be:58:50:89:48:e3:0c:3d:27:
                    57:93
                Exponent: 65537 (0x10001)
        X509v3 extensions:
            X509v3 Basic Constraints: 
                CA:FALSE
            Netscape Comment: 
                Easy-RSA Generated Certificate
            X509v3 Subject Key Identifier: 
                F4:AA:99:67:18:A1:8A:2D:49:A3:C8:46:F7:1B:CD:AA:74:3F:F9:DE
            X509v3 Authority Key Identifier: 
                keyid:14:2E:C8:4A:1F:21:00:FF:24:FC:7B:D8:DB:4A:F1:2C:D7:C1:3B:C6
                DirName:/C=FR/ST=IDF/L=Ivry sur Seine/O=CantBreakIt/OU=CBI/CN=CantBreakIt CA/name=EasyRSA/emailAddress=cangelosi@cantbreakit.fr
                serial:D2:9F:62:88:25:C3:E0:1E

            X509v3 Extended Key Usage: 
                TLS Web Client Authentication
            X509v3 Key Usage: 
                Digital Signature
            X509v3 Subject Alternative Name: 
                DNS:Adjevi
    Signature Algorithm: sha256WithRSAEncryption
         13:a4:c6:39:1a:e8:01:d3:d6:d5:6e:c9:f3:1e:24:04:3e:6e:
         0c:64:c2:fa:a7:ca:c4:e5:0a:41:4b:7c:1e:58:21:a3:2a:04:
         b1:44:38:28:78:fd:8b:8a:92:d2:13:9f:b0:57:c0:ad:0b:cc:
         a3:5a:41:c5:81:da:81:15:9b:8a:69:76:fc:7d:d1:47:54:d3:
         9b:c9:73:ce:e3:bf:b0:4a:ce:57:88:e3:c1:4c:04:89:a1:a5:
         e5:0b:1f:b4:3c:4d:46:9e:4c:d0:ae:b0:e5:e5:80:85:f5:ea:
         14:67:e8:31:a5:5a:16:b3:fe:3f:db:54:41:72:8e:57:16:30:
         70:f0:6a:13:48:ae:15:4c:18:0d:90:60:e0:b4:1b:86:bc:7f:
         ab:09:ab:9a:26:bf:15:05:12:c7:0a:5d:ed:76:a5:92:8f:ab:
         4a:3f:88:24:ff:be:b6:79:f5:dd:40:51:1e:e7:2f:ae:86:03:
         3f:55:a0:49:0e:13:81:33:22:97:76:c5:0b:8b:ab:d9:58:bd:
         ee:23:32:d5:da:5a:f6:ff:93:ae:05:19:e6:f0:59:74:c2:ce:
         d1:e7:8d:1a:32:e8:5a:d1:96:8a:93:f9:87:44:ce:80:a9:9b:
         5d:a3:ac:01:87:08:2c:49:cb:b7:fc:db:48:69:20:17:c2:36:
         d7:15:87:f3
-----BEGIN CERTIFICATE-----
MIIFRTCCBC2gAwIBAgIBDzANBgkqhkiG9w0BAQsFADCBrDELMAkGA1UEBhMCRlIx
DDAKBgNVBAgTA0lERjEXMBUGA1UEBxMOSXZyeSBzdXIgU2VpbmUxFDASBgNVBAoT
C0NhbnRCcmVha0l0MQwwCgYDVQQLEwNDQkkxFzAVBgNVBAMTDkNhbnRCcmVha0l0
IENBMRAwDgYDVQQpEwdFYXN5UlNBMScwJQYJKoZIhvcNAQkBFhhjYW5nZWxvc2lA
Y2FudGJyZWFraXQuZnIwHhcNMTYwNzExMTMxMDI2WhcNMjYwNzA5MTMxMDI2WjCB
pDELMAkGA1UEBhMCRlIxDDAKBgNVBAgTA0lERjEXMBUGA1UEBxMOSXZyeSBzdXIg
U2VpbmUxFDASBgNVBAoTC0NhbnRCcmVha0l0MQwwCgYDVQQLEwNDQkkxDzANBgNV
BAMTBkFkamV2aTEQMA4GA1UEKRMHRWFzeVJTQTEnMCUGCSqGSIb3DQEJARYYY2Fu
Z2Vsb3NpQGNhbnRicmVha2l0LmZyMIIBIjANBgkqhkiG9w0BAQEFAAOCAQ8AMIIB
CgKCAQEA0RB5FyQxJcqiUQREaxLy18vYrRxuKdER+mQax7e4/8DbJKkZloJTwVhv
7LrW0KHpUazMh3+/2AwTrb2/zX5PxtVq2JsnBoNrNjTXgQDWRz/MmS+OrAqgpRoI
Mtj/BFK+/+RWE5WpowFSkNml1MyWaeFt7vpv9gjeOBNeF+TtRONSBQqyVxxkJtkW
DU0aGQx+sCamNgBEh+frBjIPpp/Byu90KzmirKaljx29r0XlL6uQ07sUJOMLU7vQ
ggInNMndPklRhMdyD9Rh7Ie0YyofJ7BVy538+NbiROhBXStE/x0Am42Q2DGYBqJH
3NnTAzZxLA+y/k++WFCJSOMMPSdXkwIDAQABo4IBdjCCAXIwCQYDVR0TBAIwADAt
BglghkgBhvhCAQ0EIBYeRWFzeS1SU0EgR2VuZXJhdGVkIENlcnRpZmljYXRlMB0G
A1UdDgQWBBT0qplnGKGKLUmjyEb3G82qdD/53jCB4QYDVR0jBIHZMIHWgBQULshK
HyEA/yT8e9jbSvEs18E7xqGBsqSBrzCBrDELMAkGA1UEBhMCRlIxDDAKBgNVBAgT
A0lERjEXMBUGA1UEBxMOSXZyeSBzdXIgU2VpbmUxFDASBgNVBAoTC0NhbnRCcmVh
a0l0MQwwCgYDVQQLEwNDQkkxFzAVBgNVBAMTDkNhbnRCcmVha0l0IENBMRAwDgYD
VQQpEwdFYXN5UlNBMScwJQYJKoZIhvcNAQkBFhhjYW5nZWxvc2lAY2FudGJyZWFr
aXQuZnKCCQDSn2KIJcPgHjATBgNVHSUEDDAKBggrBgEFBQcDAjALBgNVHQ8EBAMC
B4AwEQYDVR0RBAowCIIGQWRqZXZpMA0GCSqGSIb3DQEBCwUAA4IBAQATpMY5GugB
09bVbsnzHiQEPm4MZML6p8rE5QpBS3weWCGjKgSxRDgoeP2LipLSE5+wV8CtC8yj
WkHFgdqBFZuKaXb8fdFHVNObyXPO47+wSs5XiOPBTASJoaXlCx+0PE1GnkzQrrDl
5YCF9eoUZ+gxpVoWs/4/21RBco5XFjBw8GoTSK4VTBgNkGDgtBuGvH+rCauaJr8V
BRLHCl3tdqWSj6tKP4gk/762efXdQFEe5y+uhgM/VaBJDhOBMyKXdsULi6vZWL3u
IzLV2lr2/5OuBRnm8Fl0ws7R540aMuha0ZaKk/mHRM6AqZtdo6wBhwgsScu3/NtI
aSAXwjbXFYfz
-----END CERTIFICATE-----
