Certificate:
    Data:
        Version: 3 (0x2)
        Serial Number: 1 (0x1)
    Signature Algorithm: sha256WithRSAEncryption
        Issuer: C=FR, ST=IDF, L=Ivry sur Seine, O=CantBreakIt, OU=CBI, CN=CantBreakIt CA/name=EasyRSA/emailAddress=cangelosi@cantbreakit.fr
        Validity
            Not Before: Jul  6 07:50:40 2016 GMT
            Not After : Jul  4 07:50:40 2026 GMT
        Subject: C=FR, ST=IDF, L=Ivry sur Seine, O=CantBreakIt, OU=CBI, CN=server-exam/name=EasyRSA/emailAddress=cangelosi@cantbreakit.fr
        Subject Public Key Info:
            Public Key Algorithm: rsaEncryption
                Public-Key: (2048 bit)
                Modulus:
                    00:c0:f0:84:40:10:82:62:91:95:b9:34:e3:b1:bb:
                    1e:01:f8:d6:a1:aa:79:68:f9:c6:36:ad:65:d8:05:
                    dd:9b:ee:05:46:70:00:88:c5:2a:22:54:1b:10:fb:
                    79:46:64:a3:29:68:a2:c4:cf:9b:99:f2:ec:d0:ce:
                    91:fd:7d:4d:2d:7c:a0:61:a5:80:25:aa:64:13:f0:
                    ee:cd:d1:d5:b5:e7:63:4e:13:9d:a2:41:d6:7f:00:
                    d8:17:39:52:8d:15:84:94:db:ac:af:0a:dc:df:28:
                    b7:f6:ea:b3:7d:a3:a1:00:dc:2d:1c:71:aa:58:4e:
                    ce:b2:76:00:09:6d:59:8f:46:75:1c:eb:c1:71:26:
                    b5:64:26:b7:57:0f:e5:e3:79:9e:18:04:de:d0:57:
                    c3:0c:d5:0f:e2:0b:c0:f9:7b:79:05:95:16:0c:41:
                    12:46:c6:f4:7b:0a:b4:f7:d8:71:3b:3e:d8:09:5c:
                    5d:d4:01:e8:72:8c:4c:4e:80:02:95:10:76:1b:39:
                    7b:cb:b7:07:31:8e:d9:62:b4:55:60:94:ea:74:ea:
                    c0:e7:76:7d:c5:90:cb:ce:1d:fc:5a:3a:49:43:a5:
                    18:22:b5:67:31:cd:9a:e3:cf:49:1c:d1:09:9a:fd:
                    00:7d:7b:a7:e6:41:ab:64:b0:28:28:02:ce:71:41:
                    cb:7f
                Exponent: 65537 (0x10001)
        X509v3 extensions:
            X509v3 Basic Constraints: 
                CA:FALSE
            Netscape Cert Type: 
                SSL Server
            Netscape Comment: 
                Easy-RSA Generated Server Certificate
            X509v3 Subject Key Identifier: 
                97:66:EB:D8:10:07:18:E9:FB:0E:BB:34:AF:1C:20:D5:79:26:70:DC
            X509v3 Authority Key Identifier: 
                keyid:13:B7:3A:19:79:1B:B5:CE:74:59:ED:79:CF:48:E0:AF:0E:FD:78:EE
                DirName:/C=FR/ST=IDF/L=Ivry sur Seine/O=CantBreakIt/OU=CBI/CN=CantBreakIt CA/name=EasyRSA/emailAddress=cangelosi@cantbreakit.fr
                serial:E0:0B:8F:19:8B:8B:8B:62

            X509v3 Extended Key Usage: 
                TLS Web Server Authentication
            X509v3 Key Usage: 
                Digital Signature, Key Encipherment
            X509v3 Subject Alternative Name: 
                DNS:server-exam
    Signature Algorithm: sha256WithRSAEncryption
         50:db:f3:91:99:ce:ce:ad:67:36:c9:a7:d8:b3:77:1b:cf:80:
         d7:cf:cb:86:65:7b:ef:b8:45:25:87:9e:c2:7d:0e:f2:a0:81:
         44:ca:50:40:d9:29:a4:66:78:56:65:59:93:8b:93:03:c6:c9:
         9b:0f:85:4a:83:86:9c:21:e9:74:54:ac:8d:85:45:7f:61:94:
         5c:a0:72:c5:22:bb:5a:23:41:23:fb:2a:11:31:f7:2d:d9:86:
         54:14:3e:b7:c4:3f:64:f8:52:02:ed:c7:32:38:eb:ba:d9:8c:
         f7:01:eb:01:cb:de:0f:52:15:34:7b:b5:1a:18:b9:fd:6a:46:
         ec:35:e5:1e:fb:1e:02:41:3b:12:af:a0:38:ec:e9:e3:b3:28:
         0c:ef:04:06:08:c2:3d:ef:c3:f6:68:1c:83:a8:a8:4e:fa:44:
         31:58:73:80:19:e0:3f:3c:f7:25:1e:32:13:83:b4:35:ec:02:
         61:5e:ae:8b:f7:1d:b0:ff:93:20:75:0b:4d:5f:1a:ac:71:11:
         a5:bb:ed:48:5f:59:77:61:c4:c4:12:ee:aa:75:d8:30:54:50:
         8d:7f:02:30:5a:05:70:e0:c0:6f:66:35:82:7b:55:09:bd:90:
         6c:41:cb:e6:94:6b:13:d2:33:b8:e4:ef:9e:83:d2:88:92:a5:
         87:55:44:61
-----BEGIN CERTIFICATE-----
MIIFaTCCBFGgAwIBAgIBATANBgkqhkiG9w0BAQsFADCBrDELMAkGA1UEBhMCRlIx
DDAKBgNVBAgTA0lERjEXMBUGA1UEBxMOSXZyeSBzdXIgU2VpbmUxFDASBgNVBAoT
C0NhbnRCcmVha0l0MQwwCgYDVQQLEwNDQkkxFzAVBgNVBAMTDkNhbnRCcmVha0l0
IENBMRAwDgYDVQQpEwdFYXN5UlNBMScwJQYJKoZIhvcNAQkBFhhjYW5nZWxvc2lA
Y2FudGJyZWFraXQuZnIwHhcNMTYwNzA2MDc1MDQwWhcNMjYwNzA0MDc1MDQwWjCB
qTELMAkGA1UEBhMCRlIxDDAKBgNVBAgTA0lERjEXMBUGA1UEBxMOSXZyeSBzdXIg
U2VpbmUxFDASBgNVBAoTC0NhbnRCcmVha0l0MQwwCgYDVQQLEwNDQkkxFDASBgNV
BAMTC3NlcnZlci1leGFtMRAwDgYDVQQpEwdFYXN5UlNBMScwJQYJKoZIhvcNAQkB
FhhjYW5nZWxvc2lAY2FudGJyZWFraXQuZnIwggEiMA0GCSqGSIb3DQEBAQUAA4IB
DwAwggEKAoIBAQDA8IRAEIJikZW5NOOxux4B+Nahqnlo+cY2rWXYBd2b7gVGcACI
xSoiVBsQ+3lGZKMpaKLEz5uZ8uzQzpH9fU0tfKBhpYAlqmQT8O7N0dW152NOE52i
QdZ/ANgXOVKNFYSU26yvCtzfKLf26rN9o6EA3C0ccapYTs6ydgAJbVmPRnUc68Fx
JrVkJrdXD+XjeZ4YBN7QV8MM1Q/iC8D5e3kFlRYMQRJGxvR7CrT32HE7PtgJXF3U
AehyjExOgAKVEHYbOXvLtwcxjtlitFVglOp06sDndn3FkMvOHfxaOklDpRgitWcx
zZrjz0kc0Qma/QB9e6fmQatksCgoAs5xQct/AgMBAAGjggGVMIIBkTAJBgNVHRME
AjAAMBEGCWCGSAGG+EIBAQQEAwIGQDA0BglghkgBhvhCAQ0EJxYlRWFzeS1SU0Eg
R2VuZXJhdGVkIFNlcnZlciBDZXJ0aWZpY2F0ZTAdBgNVHQ4EFgQUl2br2BAHGOn7
Drs0rxwg1XkmcNwwgeEGA1UdIwSB2TCB1oAUE7c6GXkbtc50We15z0jgrw79eO6h
gbKkga8wgawxCzAJBgNVBAYTAkZSMQwwCgYDVQQIEwNJREYxFzAVBgNVBAcTDkl2
cnkgc3VyIFNlaW5lMRQwEgYDVQQKEwtDYW50QnJlYWtJdDEMMAoGA1UECxMDQ0JJ
MRcwFQYDVQQDEw5DYW50QnJlYWtJdCBDQTEQMA4GA1UEKRMHRWFzeVJTQTEnMCUG
CSqGSIb3DQEJARYYY2FuZ2Vsb3NpQGNhbnRicmVha2l0LmZyggkA4AuPGYuLi2Iw
EwYDVR0lBAwwCgYIKwYBBQUHAwEwCwYDVR0PBAQDAgWgMBYGA1UdEQQPMA2CC3Nl
cnZlci1leGFtMA0GCSqGSIb3DQEBCwUAA4IBAQBQ2/ORmc7OrWc2yafYs3cbz4DX
z8uGZXvvuEUlh57CfQ7yoIFEylBA2SmkZnhWZVmTi5MDxsmbD4VKg4acIel0VKyN
hUV/YZRcoHLFIrtaI0Ej+yoRMfct2YZUFD63xD9k+FIC7ccyOOu62Yz3AesBy94P
UhU0e7UaGLn9akbsNeUe+x4CQTsSr6A47OnjsygM7wQGCMI978P2aByDqKhO+kQx
WHOAGeA/PPclHjITg7Q17AJhXq6L9x2w/5MgdQtNXxqscRGlu+1IX1l3YcTEEu6q
ddgwVFCNfwIwWgVw4MBvZjWCe1UJvZBsQcvmlGsT0jO45O+eg9KIkqWHVURh
-----END CERTIFICATE-----
