Certificate:
    Data:
        Version: 3 (0x2)
        Serial Number: 10 (0xa)
    Signature Algorithm: sha256WithRSAEncryption
        Issuer: C=FR, ST=IDF, L=Ivry sur Seine, O=CantBreakIt, OU=CBI, CN=CantBreakIt CA/name=EasyRSA/emailAddress=cangelosi@cantbreakit.fr
        Validity
            Not Before: Jul 10 22:58:43 2016 GMT
            Not After : Jul  8 22:58:43 2026 GMT
        Subject: C=FR, ST=IDF, L=Ivry sur Seine, O=CantBreakIt, OU=CBI, CN=Alexis/name=EasyRSA/emailAddress=cangelosi@cantbreakit.fr
        Subject Public Key Info:
            Public Key Algorithm: rsaEncryption
                Public-Key: (2048 bit)
                Modulus:
                    00:b5:94:55:5e:7b:37:1f:8c:64:ff:e2:e5:7e:53:
                    d2:b8:fb:37:94:c4:dd:35:ec:6a:04:8d:df:a2:35:
                    4e:a6:d8:55:40:bd:aa:33:5f:e9:8b:2e:0d:59:c8:
                    ac:bb:7d:af:cc:3c:2d:02:40:6c:bd:f7:47:b8:77:
                    0e:7f:83:10:0e:16:b6:6d:82:d4:0c:d7:4a:a2:10:
                    1f:12:33:94:9a:f5:e3:67:79:37:95:44:58:59:d8:
                    cc:87:1b:66:2e:1f:82:74:d1:41:c6:78:3f:9f:32:
                    7e:3b:61:70:f7:04:57:ee:38:ac:1a:97:22:84:6d:
                    9b:69:e4:08:bf:a7:e5:5c:17:73:e6:bf:4e:bc:06:
                    a2:47:c3:aa:bb:01:14:de:2a:6b:ca:45:0a:b8:86:
                    d3:2a:20:54:5a:5e:e5:73:f9:2b:9f:4c:e0:4e:b1:
                    7d:f3:91:2f:b7:ae:b2:9f:a0:74:5c:b1:7d:e3:23:
                    65:a0:1c:d6:62:ca:0c:7a:3f:19:4e:11:9c:f5:b3:
                    41:68:3c:86:f5:8c:38:c1:87:ad:50:0b:6c:41:38:
                    7d:4b:c4:fa:9b:d5:7a:0e:80:61:6b:66:d1:17:30:
                    96:56:c8:6e:73:12:26:93:f8:79:a9:d9:a9:b4:ba:
                    c2:29:b0:0b:da:0f:e1:89:fd:db:5e:1f:68:1a:01:
                    6e:d1
                Exponent: 65537 (0x10001)
        X509v3 extensions:
            X509v3 Basic Constraints: 
                CA:FALSE
            Netscape Comment: 
                Easy-RSA Generated Certificate
            X509v3 Subject Key Identifier: 
                F7:EE:B3:E8:04:AC:14:77:A2:98:18:3A:D7:1B:F1:F8:E9:1D:7C:6C
            X509v3 Authority Key Identifier: 
                keyid:87:61:A0:B8:5A:C8:82:61:08:FB:BB:33:12:9D:00:A3:E5:FF:F0:5B
                DirName:/C=FR/ST=IDF/L=Ivry sur Seine/O=CantBreakIt/OU=CBI/CN=CantBreakIt CA/name=EasyRSA/emailAddress=cangelosi@cantbreakit.fr
                serial:B8:CD:C9:32:07:F5:69:8A

            X509v3 Extended Key Usage: 
                TLS Web Client Authentication
            X509v3 Key Usage: 
                Digital Signature
            X509v3 Subject Alternative Name: 
                DNS:Alexis
    Signature Algorithm: sha256WithRSAEncryption
         13:09:2e:7a:f4:08:cc:c1:94:39:c1:73:37:66:bf:e3:48:38:
         7c:10:b4:b7:e8:1e:9c:f4:be:35:56:9c:41:c6:93:8d:00:0d:
         c5:8c:ec:2d:1c:2f:69:1b:89:0c:a8:71:31:be:d0:4b:49:f7:
         12:85:ca:e9:c4:1f:a1:6f:c7:37:4c:36:42:56:2b:2f:8d:1c:
         c8:1a:e6:37:c2:8a:b0:b4:8b:59:09:f6:19:09:48:9c:b0:6d:
         43:20:fd:0f:19:99:c2:c3:92:09:5b:50:7b:4a:06:69:5e:3b:
         f4:44:2f:43:d6:85:45:e7:01:bd:f7:48:b0:7f:e4:0c:fe:c2:
         cf:58:7d:a9:b1:2c:e2:2b:ed:8a:1e:6f:a4:04:d7:c3:25:17:
         54:de:ff:67:55:08:fa:be:04:5b:8c:3c:54:30:1b:a0:b0:1e:
         9e:15:74:2e:41:cf:97:a3:00:ed:b4:75:13:29:39:e9:57:04:
         16:35:bc:1c:36:16:69:7d:cf:9d:69:cb:3f:aa:87:76:67:e3:
         17:96:2d:a2:80:79:a1:bd:11:81:2b:93:98:b0:29:4e:de:21:
         57:26:14:64:e4:09:29:f2:77:d7:75:e3:78:14:ae:66:58:76:
         dd:23:16:58:dd:58:ee:f2:9c:ca:44:24:b6:5f:3c:55:68:79:
         41:45:04:8a
-----BEGIN CERTIFICATE-----
MIIFRTCCBC2gAwIBAgIBCjANBgkqhkiG9w0BAQsFADCBrDELMAkGA1UEBhMCRlIx
DDAKBgNVBAgTA0lERjEXMBUGA1UEBxMOSXZyeSBzdXIgU2VpbmUxFDASBgNVBAoT
C0NhbnRCcmVha0l0MQwwCgYDVQQLEwNDQkkxFzAVBgNVBAMTDkNhbnRCcmVha0l0
IENBMRAwDgYDVQQpEwdFYXN5UlNBMScwJQYJKoZIhvcNAQkBFhhjYW5nZWxvc2lA
Y2FudGJyZWFraXQuZnIwHhcNMTYwNzEwMjI1ODQzWhcNMjYwNzA4MjI1ODQzWjCB
pDELMAkGA1UEBhMCRlIxDDAKBgNVBAgTA0lERjEXMBUGA1UEBxMOSXZyeSBzdXIg
U2VpbmUxFDASBgNVBAoTC0NhbnRCcmVha0l0MQwwCgYDVQQLEwNDQkkxDzANBgNV
BAMTBkFsZXhpczEQMA4GA1UEKRMHRWFzeVJTQTEnMCUGCSqGSIb3DQEJARYYY2Fu
Z2Vsb3NpQGNhbnRicmVha2l0LmZyMIIBIjANBgkqhkiG9w0BAQEFAAOCAQ8AMIIB
CgKCAQEAtZRVXns3H4xk/+LlflPSuPs3lMTdNexqBI3fojVOpthVQL2qM1/piy4N
Wcisu32vzDwtAkBsvfdHuHcOf4MQDha2bYLUDNdKohAfEjOUmvXjZ3k3lURYWdjM
hxtmLh+CdNFBxng/nzJ+O2Fw9wRX7jisGpcihG2baeQIv6flXBdz5r9OvAaiR8Oq
uwEU3iprykUKuIbTKiBUWl7lc/krn0zgTrF985Evt66yn6B0XLF94yNloBzWYsoM
ej8ZThGc9bNBaDyG9Yw4wYetUAtsQTh9S8T6m9V6DoBha2bRFzCWVshucxImk/h5
qdmptLrCKbAL2g/hif3bXh9oGgFu0QIDAQABo4IBdjCCAXIwCQYDVR0TBAIwADAt
BglghkgBhvhCAQ0EIBYeRWFzeS1SU0EgR2VuZXJhdGVkIENlcnRpZmljYXRlMB0G
A1UdDgQWBBT37rPoBKwUd6KYGDrXG/H46R18bDCB4QYDVR0jBIHZMIHWgBSHYaC4
WsiCYQj7uzMSnQCj5f/wW6GBsqSBrzCBrDELMAkGA1UEBhMCRlIxDDAKBgNVBAgT
A0lERjEXMBUGA1UEBxMOSXZyeSBzdXIgU2VpbmUxFDASBgNVBAoTC0NhbnRCcmVh
a0l0MQwwCgYDVQQLEwNDQkkxFzAVBgNVBAMTDkNhbnRCcmVha0l0IENBMRAwDgYD
VQQpEwdFYXN5UlNBMScwJQYJKoZIhvcNAQkBFhhjYW5nZWxvc2lAY2FudGJyZWFr
aXQuZnKCCQC4zckyB/VpijATBgNVHSUEDDAKBggrBgEFBQcDAjALBgNVHQ8EBAMC
B4AwEQYDVR0RBAowCIIGQWxleGlzMA0GCSqGSIb3DQEBCwUAA4IBAQATCS569AjM
wZQ5wXM3Zr/jSDh8ELS36B6c9L41VpxBxpONAA3FjOwtHC9pG4kMqHExvtBLSfcS
hcrpxB+hb8c3TDZCVisvjRzIGuY3woqwtItZCfYZCUicsG1DIP0PGZnCw5IJW1B7
SgZpXjv0RC9D1oVF5wG990iwf+QM/sLPWH2psSziK+2KHm+kBNfDJRdU3v9nVQj6
vgRbjDxUMBugsB6eFXQuQc+XowDttHUTKTnpVwQWNbwcNhZpfc+dacs/qod2Z+MX
li2igHmhvRGBK5OYsClO3iFXJhRk5Akp8nfXdeN4FK5mWHbdIxZY3Vju8pzKRCS2
XzxVaHlBRQSK
-----END CERTIFICATE-----
